target datalayout = "e-m:e-p270:32:32-p271:32:32-p272:64:64-i64:64-i128:128-f80:128-n8:16:32:64-S128"
target triple = "x86_64-unknown-linux-gnu"

%struct.QEMUIOVector = type { ptr, i32, %union.anon }
%union.anon = type { %struct.anon }
%struct.anon = type { i32, %struct.iovec }
%struct.iovec = type { ptr, i64 }
%struct.IDEBufferedRequest = type { %struct.anon.2, %struct.QEMUIOVector, ptr, ptr, ptr, i8 }
%struct.anon.2 = type { ptr, ptr }
%struct.anon.0 = type { [12 x i8], i64 }

@.str.6 = private unnamed_addr constant [22 x i8] c"../qemu/hw/ide/core.c\00", align 1
@.str.54 = private unnamed_addr constant [43 x i8] c"req->qiov.size == req->original_qiov->size\00", align 1
@__PRETTY_FUNCTION__.ide_buffered_readv_cb = private unnamed_addr constant [40 x i8] c"void ide_buffered_readv_cb(void *, int)\00", align 1
@.str.55 = private unnamed_addr constant [52 x i8] c"qiov->nalloc == -1 && qiov->iov == &qiov->local_iov\00", align 1
@.str.56 = private unnamed_addr constant [97 x i8] c"/home/dtcxzyw/WorkSpace/Projects/compilers/llvm-opt-benchmark/bench/qemu/qemu/include/qemu/iov.h\00", align 1
@__PRETTY_FUNCTION__.qemu_iovec_buf = private unnamed_addr constant [37 x i8] c"void *qemu_iovec_buf(QEMUIOVector *)\00", align 1

; Function Attrs: nounwind sspstrong uwtable
define internal ptr @qemu_iovec_buf(ptr noundef %qiov) #0 {
entry:
  %qiov.addr = alloca ptr, align 8
  store ptr %qiov, ptr %qiov.addr, align 8
  %0 = load ptr, ptr %qiov.addr, align 8
  %1 = getelementptr inbounds %struct.QEMUIOVector, ptr %0, i32 0, i32 2
  %nalloc = getelementptr inbounds %struct.anon, ptr %1, i32 0, i32 0
  %2 = load i32, ptr %nalloc, align 8
  %cmp = icmp eq i32 %2, -1
  br i1 %cmp, label %land.lhs.true, label %if.else

land.lhs.true:                                    ; preds = %entry
  %3 = load ptr, ptr %qiov.addr, align 8
  %iov = getelementptr inbounds %struct.QEMUIOVector, ptr %3, i32 0, i32 0
  %4 = load ptr, ptr %iov, align 8
  %5 = load ptr, ptr %qiov.addr, align 8
  %6 = getelementptr inbounds %struct.QEMUIOVector, ptr %5, i32 0, i32 2
  %local_iov = getelementptr inbounds %struct.anon, ptr %6, i32 0, i32 1
  %cmp1 = icmp eq ptr %4, %local_iov
  br i1 %cmp1, label %if.then, label %if.else

if.then:                                          ; preds = %land.lhs.true
  br label %if.end

if.else:                                          ; preds = %land.lhs.true, %entry
  call void @__assert_fail(ptr noundef @.str.55, ptr noundef @.str.56, i32 noundef 218, ptr noundef @__PRETTY_FUNCTION__.qemu_iovec_buf) #8
  unreachable

if.end:                                           ; preds = %if.then
  %7 = load ptr, ptr %qiov.addr, align 8
  %8 = getelementptr inbounds %struct.QEMUIOVector, ptr %7, i32 0, i32 2
  %local_iov2 = getelementptr inbounds %struct.anon, ptr %8, i32 0, i32 1
  %iov_base = getelementptr inbounds %struct.iovec, ptr %local_iov2, i32 0, i32 0
  %9 = load ptr, ptr %iov_base, align 8
  ret ptr %9
}

; Function Attrs: nounwind sspstrong uwtable
define internal void @ide_buffered_readv_cb(ptr noundef %opaque, i32 noundef %ret) #0 {
entry:
  %opaque.addr = alloca ptr, align 8
  %ret.addr = alloca i32, align 4
  %req = alloca ptr, align 8
  store ptr %opaque, ptr %opaque.addr, align 8
  store i32 %ret, ptr %ret.addr, align 4
  %0 = load ptr, ptr %opaque.addr, align 8
  store ptr %0, ptr %req, align 8
  %1 = load ptr, ptr %req, align 8
  %orphaned = getelementptr inbounds %struct.IDEBufferedRequest, ptr %1, i32 0, i32 5
  %2 = load i8, ptr %orphaned, align 8
  %tobool = trunc i8 %2 to i1
  br i1 %tobool, label %if.end10, label %if.then

if.then:                                          ; preds = %entry
  %3 = load i32, ptr %ret.addr, align 4
  %tobool1 = icmp ne i32 %3, 0
  br i1 %tobool1, label %if.end9, label %if.then2

if.then2:                                         ; preds = %if.then
  %4 = load ptr, ptr %req, align 8
  %qiov = getelementptr inbounds %struct.IDEBufferedRequest, ptr %4, i32 0, i32 1
  %5 = getelementptr inbounds %struct.QEMUIOVector, ptr %qiov, i32 0, i32 2
  %size = getelementptr inbounds %struct.anon.0, ptr %5, i32 0, i32 1
  %6 = load i64, ptr %size, align 8
  %7 = load ptr, ptr %req, align 8
  %original_qiov = getelementptr inbounds %struct.IDEBufferedRequest, ptr %7, i32 0, i32 2
  %8 = load ptr, ptr %original_qiov, align 8
  %9 = getelementptr inbounds %struct.QEMUIOVector, ptr %8, i32 0, i32 2
  %size3 = getelementptr inbounds %struct.anon.0, ptr %9, i32 0, i32 1
  %10 = load i64, ptr %size3, align 8
  %cmp = icmp eq i64 %6, %10
  br i1 %cmp, label %if.then4, label %if.else

if.then4:                                         ; preds = %if.then2
  br label %if.end

if.else:                                          ; preds = %if.then2
  call void @__assert_fail(ptr noundef @.str.54, ptr noundef @.str.6, i32 noundef 679, ptr noundef @__PRETTY_FUNCTION__.ide_buffered_readv_cb) #8
  unreachable

if.end:                                           ; preds = %if.then4
  %11 = load ptr, ptr %req, align 8
  %original_qiov5 = getelementptr inbounds %struct.IDEBufferedRequest, ptr %11, i32 0, i32 2
  %12 = load ptr, ptr %original_qiov5, align 8
  %13 = load ptr, ptr %req, align 8
  %qiov6 = getelementptr inbounds %struct.IDEBufferedRequest, ptr %13, i32 0, i32 1
  %14 = getelementptr inbounds %struct.QEMUIOVector, ptr %qiov6, i32 0, i32 2
  %local_iov = getelementptr inbounds %struct.anon, ptr %14, i32 0, i32 1
  %iov_base = getelementptr inbounds %struct.iovec, ptr %local_iov, i32 0, i32 0
  %15 = load ptr, ptr %iov_base, align 8
  %16 = load ptr, ptr %req, align 8
  %original_qiov7 = getelementptr inbounds %struct.IDEBufferedRequest, ptr %16, i32 0, i32 2
  %17 = load ptr, ptr %original_qiov7, align 8
  %18 = getelementptr inbounds %struct.QEMUIOVector, ptr %17, i32 0, i32 2
  %size8 = getelementptr inbounds %struct.anon.0, ptr %18, i32 0, i32 1
  %19 = load i64, ptr %size8, align 8
  %call = call i64 @qemu_iovec_from_buf(ptr noundef %12, i64 noundef 0, ptr noundef %15, i64 noundef %19)
  br label %if.end9

if.end9:                                          ; preds = %if.end, %if.then
  %20 = load ptr, ptr %req, align 8
  %original_cb = getelementptr inbounds %struct.IDEBufferedRequest, ptr %20, i32 0, i32 3
  %21 = load ptr, ptr %original_cb, align 8
  %22 = load ptr, ptr %req, align 8
  %original_opaque = getelementptr inbounds %struct.IDEBufferedRequest, ptr %22, i32 0, i32 4
  %23 = load ptr, ptr %original_opaque, align 8
  %24 = load i32, ptr %ret.addr, align 4
  call void %21(ptr noundef %23, i32 noundef %24)
  br label %if.end10

if.end10:                                         ; preds = %if.end9, %entry
  br label %do.body

do.body:                                          ; preds = %if.end10
  %25 = load ptr, ptr %req, align 8
  %list = getelementptr inbounds %struct.IDEBufferedRequest, ptr %25, i32 0, i32 0
  %le_next = getelementptr inbounds %struct.anon.2, ptr %list, i32 0, i32 0
  %26 = load ptr, ptr %le_next, align 8
  %cmp11 = icmp ne ptr %26, null
  br i1 %cmp11, label %if.then12, label %if.end18

if.then12:                                        ; preds = %do.body
  %27 = load ptr, ptr %req, align 8
  %list13 = getelementptr inbounds %struct.IDEBufferedRequest, ptr %27, i32 0, i32 0
  %le_prev = getelementptr inbounds %struct.anon.2, ptr %list13, i32 0, i32 1
  %28 = load ptr, ptr %le_prev, align 8
  %29 = load ptr, ptr %req, align 8
  %list14 = getelementptr inbounds %struct.IDEBufferedRequest, ptr %29, i32 0, i32 0
  %le_next15 = getelementptr inbounds %struct.anon.2, ptr %list14, i32 0, i32 0
  %30 = load ptr, ptr %le_next15, align 8
  %list16 = getelementptr inbounds %struct.IDEBufferedRequest, ptr %30, i32 0, i32 0
  %le_prev17 = getelementptr inbounds %struct.anon.2, ptr %list16, i32 0, i32 1
  store ptr %28, ptr %le_prev17, align 8
  br label %if.end18

if.end18:                                         ; preds = %if.then12, %do.body
  %31 = load ptr, ptr %req, align 8
  %list19 = getelementptr inbounds %struct.IDEBufferedRequest, ptr %31, i32 0, i32 0
  %le_next20 = getelementptr inbounds %struct.anon.2, ptr %list19, i32 0, i32 0
  %32 = load ptr, ptr %le_next20, align 8
  %33 = load ptr, ptr %req, align 8
  %list21 = getelementptr inbounds %struct.IDEBufferedRequest, ptr %33, i32 0, i32 0
  %le_prev22 = getelementptr inbounds %struct.anon.2, ptr %list21, i32 0, i32 1
  %34 = load ptr, ptr %le_prev22, align 8
  store ptr %32, ptr %34, align 8
  %35 = load ptr, ptr %req, align 8
  %list23 = getelementptr inbounds %struct.IDEBufferedRequest, ptr %35, i32 0, i32 0
  %le_next24 = getelementptr inbounds %struct.anon.2, ptr %list23, i32 0, i32 0
  store ptr null, ptr %le_next24, align 8
  %36 = load ptr, ptr %req, align 8
  %list25 = getelementptr inbounds %struct.IDEBufferedRequest, ptr %36, i32 0, i32 0
  %le_prev26 = getelementptr inbounds %struct.anon.2, ptr %list25, i32 0, i32 1
  store ptr null, ptr %le_prev26, align 8
  br label %do.end

do.end:                                           ; preds = %if.end18
  %37 = load ptr, ptr %req, align 8
  %qiov27 = getelementptr inbounds %struct.IDEBufferedRequest, ptr %37, i32 0, i32 1
  %call28 = call ptr @qemu_iovec_buf(ptr noundef %qiov27)
  call void @qemu_vfree(ptr noundef %call28)
  %38 = load ptr, ptr %req, align 8
  call void @g_free(ptr noundef %38)
  ret void
}