; Function Attrs: nounwind sspstrong uwtable
define internal void @ide_buffered_readv_cb(ptr noundef %opaque, i32 noundef %ret) #0 {
entry:
  %orphaned = getelementptr inbounds nuw i8, ptr %opaque, i64 80
  %0 = load i8, ptr %orphaned, align 8
  %tobool = trunc i8 %0 to i1
  br i1 %tobool, label %do.body, label %if.then

if.then:                                          ; preds = %entry
  %tobool1.not = icmp eq i32 %ret, 0
  br i1 %tobool1.not, label %if.then2, label %if.end9

if.then2:                                         ; preds = %if.then
  %size = getelementptr inbounds nuw i8, ptr %opaque, i64 48
  %1 = load i64, ptr %size, align 8
  %original_qiov = getelementptr inbounds nuw i8, ptr %opaque, i64 56
  %2 = load ptr, ptr %original_qiov, align 8
  %size3 = getelementptr inbounds nuw i8, ptr %2, i64 32
  %3 = load i64, ptr %size3, align 8
  %cmp = icmp eq i64 %1, %3
  br i1 %cmp, label %if.end, label %if.else

if.else:                                          ; preds = %if.then2
  tail call void @__assert_fail(ptr noundef nonnull @.str.54, ptr noundef nonnull @.str.6, i32 noundef 679, ptr noundef nonnull @__PRETTY_FUNCTION__.ide_buffered_readv_cb) #18
  unreachable

if.end:                                           ; preds = %if.then2
  %local_iov = getelementptr inbounds nuw i8, ptr %opaque, i64 40
  %4 = load ptr, ptr %local_iov, align 8
  %call = tail call i64 @qemu_iovec_from_buf(ptr noundef nonnull %2, i64 noundef 0, ptr noundef %4, i64 noundef %1) #17
  br label %if.end9

if.end9:                                          ; preds = %if.end, %if.then
  %original_cb = getelementptr inbounds nuw i8, ptr %opaque, i64 64
  %5 = load ptr, ptr %original_cb, align 8
  %original_opaque = getelementptr inbounds nuw i8, ptr %opaque, i64 72
  %6 = load ptr, ptr %original_opaque, align 8
  tail call void %5(ptr noundef %6, i32 noundef %ret) #17
  br label %do.body

do.body:                                          ; preds = %entry, %if.end9
  %7 = load ptr, ptr %opaque, align 8
  %cmp11.not = icmp eq ptr %7, null
  %le_prev22.phi.trans.insert = getelementptr inbounds nuw i8, ptr %opaque, i64 8
  %.pre19 = load ptr, ptr %le_prev22.phi.trans.insert, align 8
  br i1 %cmp11.not, label %if.end18, label %if.then12

if.then12:                                        ; preds = %do.body
  %le_prev17 = getelementptr inbounds nuw i8, ptr %7, i64 8
  store ptr %.pre19, ptr %le_prev17, align 8
  %.pre = load ptr, ptr %opaque, align 8
  br label %if.end18

if.end18:                                         ; preds = %do.body, %if.then12
  %8 = phi ptr [ %.pre, %if.then12 ], [ null, %do.body ]
  store ptr %8, ptr %.pre19, align 8
  %9 = getelementptr inbounds nuw i8, ptr %opaque, i64 32
  tail call void @llvm.memset.p0.i64(ptr noundef nonnull align 8 dereferenceable(16) %opaque, i8 0, i64 16, i1 false)
  %10 = load i32, ptr %9, align 8
  %cmp.i = icmp eq i32 %10, -1
  br i1 %cmp.i, label %land.lhs.true.i, label %if.else.i

land.lhs.true.i:                                  ; preds = %if.end18
  %qiov27 = getelementptr inbounds nuw i8, ptr %opaque, i64 16
  %11 = load ptr, ptr %qiov27, align 8
  %local_iov.i = getelementptr inbounds nuw i8, ptr %opaque, i64 40
  %cmp1.i = icmp eq ptr %11, %local_iov.i
  br i1 %cmp1.i, label %qemu_iovec_buf.exit, label %if.else.i

if.else.i:                                        ; preds = %land.lhs.true.i, %if.end18
  tail call void @__assert_fail(ptr noundef nonnull @.str.55, ptr noundef nonnull @.str.56, i32 noundef 218, ptr noundef nonnull @__PRETTY_FUNCTION__.qemu_iovec_buf) #18
  unreachable

qemu_iovec_buf.exit:                              ; preds = %land.lhs.true.i
  %12 = load ptr, ptr %local_iov.i, align 8
  tail call void @qemu_vfree(ptr noundef %12) #17
  tail call void @g_free(ptr noundef nonnull %opaque) #17
  ret void
}